; Function Attrs: mustprogress nounwind uwtable
define void @_ZN15MainApplicationD2Ev(ptr noundef nonnull align 8 dereferenceable(216) %0) unnamed_addr #0 align 2 personality ptr @__gxx_personality_v0 {
  store ptr getelementptr inbounds ({ [18 x ptr] }, ptr @_ZTV15MainApplication, i64 0, i32 0, i64 2), ptr %0, align 8
  store ptr null, ptr @mainApp, align 8
  invoke void @_ZN15MainApplication26clearDynamicMenuGroupItemsEv(ptr nonnull align 8 poison)
          to label %2 unwind label %32

2:                                                ; preds = %1
  %3 = getelementptr inbounds i8, ptr %0, i64 208
  tail call void @_ZN5QIconD1Ev(ptr noundef nonnull align 8 dereferenceable(8) %3) #26
  %4 = getelementptr inbounds i8, ptr %0, i64 200
  tail call void @_ZN5QIconD1Ev(ptr noundef nonnull align 8 dereferenceable(8) %4) #26
  %5 = getelementptr inbounds i8, ptr %0, i64 168
  %6 = load ptr, ptr %5, align 8
  %.not.i.i.i = icmp eq ptr %6, null
  br i1 %.not.i.i.i, label %_ZN5QListIN15MainApplication9AppSignalEED2Ev.exit, label %_ZN17QArrayDataPointerIN15MainApplication9AppSignalEE5derefEv.exit.i.i

_ZN17QArrayDataPointerIN15MainApplication9AppSignalEE5derefEv.exit.i.i: ; preds = %2
  %7 = atomicrmw sub ptr %6, i32 1 seq_cst, align 4
  %.not.i.i = icmp eq i32 %7, 1
  br i1 %.not.i.i, label %8, label %_ZN5QListIN15MainApplication9AppSignalEED2Ev.exit

8:                                                ; preds = %_ZN17QArrayDataPointerIN15MainApplication9AppSignalEE5derefEv.exit.i.i
  %9 = load ptr, ptr %5, align 8
  tail call void @_ZN10QArrayData10deallocateEPS_xx(ptr noundef %9, i64 noundef 4, i64 noundef 8) #26
  br label %_ZN5QListIN15MainApplication9AppSignalEED2Ev.exit

_ZN5QListIN15MainApplication9AppSignalEED2Ev.exit: ; preds = %2, %_ZN17QArrayDataPointerIN15MainApplication9AppSignalEE5derefEv.exit.i.i, %8
  %10 = getelementptr inbounds i8, ptr %0, i64 136
  %11 = load ptr, ptr %10, align 8
  %.not.i.i.i1 = icmp eq ptr %11, null
  br i1 %.not.i.i.i1, label %_ZN5QListI7QStringED2Ev.exit, label %_ZN17QArrayDataPointerI7QStringE5derefEv.exit.i.i

_ZN17QArrayDataPointerI7QStringE5derefEv.exit.i.i: ; preds = %_ZN5QListIN15MainApplication9AppSignalEED2Ev.exit
  %12 = atomicrmw sub ptr %11, i32 1 seq_cst, align 4
  %.not.i.i2 = icmp eq i32 %12, 1
  br i1 %.not.i.i2, label %13, label %_ZN5QListI7QStringED2Ev.exit

13:                                               ; preds = %_ZN17QArrayDataPointerI7QStringE5derefEv.exit.i.i
  %14 = getelementptr inbounds i8, ptr %0, i64 144
  %15 = load ptr, ptr %14, align 8
  %16 = getelementptr inbounds i8, ptr %0, i64 152
  %17 = load i64, ptr %16, align 8
  %18 = getelementptr %class.QString, ptr %15, i64 %17
  %.idx.i.i.i = mul i64 %17, 24
  %.not4.i.i.i.i.i.i = icmp eq i64 %.idx.i.i.i, 0
  br i1 %.not4.i.i.i.i.i.i, label %_ZN9QtPrivate16QGenericArrayOpsI7QStringE10destroyAllEv.exit.i.i, label %.lr.ph.i.i.i.i.i.i

.lr.ph.i.i.i.i.i.i:                               ; preds = %13, %_ZSt8_DestroyI7QStringEvPT_.exit.i.i.i.i.i.i
  %.05.i.i.i.i.i.i = phi ptr [ %23, %_ZSt8_DestroyI7QStringEvPT_.exit.i.i.i.i.i.i ], [ %15, %13 ]
  %19 = load ptr, ptr %.05.i.i.i.i.i.i, align 8
  %.not.i.i.i.i.i.i.i.i.i.i = icmp eq ptr %19, null
  br i1 %.not.i.i.i.i.i.i.i.i.i.i, label %_ZSt8_DestroyI7QStringEvPT_.exit.i.i.i.i.i.i, label %_ZN17QArrayDataPointerIDsE5derefEv.exit.i.i.i.i.i.i.i.i.i

_ZN17QArrayDataPointerIDsE5derefEv.exit.i.i.i.i.i.i.i.i.i: ; preds = %.lr.ph.i.i.i.i.i.i
  %20 = atomicrmw sub ptr %19, i32 1 seq_cst, align 4
  %.not.i.i.i.i.i.i.i.i.i = icmp eq i32 %20, 1
  br i1 %.not.i.i.i.i.i.i.i.i.i, label %21, label %_ZSt8_DestroyI7QStringEvPT_.exit.i.i.i.i.i.i

21:                                               ; preds = %_ZN17QArrayDataPointerIDsE5derefEv.exit.i.i.i.i.i.i.i.i.i
  %22 = load ptr, ptr %.05.i.i.i.i.i.i, align 8
  tail call void @_ZN10QArrayData10deallocateEPS_xx(ptr noundef %22, i64 noundef 2, i64 noundef 8) #26
  br label %_ZSt8_DestroyI7QStringEvPT_.exit.i.i.i.i.i.i

_ZSt8_DestroyI7QStringEvPT_.exit.i.i.i.i.i.i:     ; preds = %21, %_ZN17QArrayDataPointerIDsE5derefEv.exit.i.i.i.i.i.i.i.i.i, %.lr.ph.i.i.i.i.i.i
  %23 = getelementptr i8, ptr %.05.i.i.i.i.i.i, i64 24
  %.not.i.i.i.i.i.i = icmp eq ptr %23, %18
  br i1 %.not.i.i.i.i.i.i, label %_ZN9QtPrivate16QGenericArrayOpsI7QStringE10destroyAllEv.exit.i.i, label %.lr.ph.i.i.i.i.i.i, !llvm.loop !11

_ZN9QtPrivate16QGenericArrayOpsI7QStringE10destroyAllEv.exit.i.i: ; preds = %_ZSt8_DestroyI7QStringEvPT_.exit.i.i.i.i.i.i, %13
  %24 = load ptr, ptr %10, align 8
  tail call void @_ZN10QArrayData10deallocateEPS_xx(ptr noundef %24, i64 noundef 24, i64 noundef 8) #26
  br label %_ZN5QListI7QStringED2Ev.exit

_ZN5QListI7QStringED2Ev.exit:                     ; preds = %_ZN5QListIN15MainApplication9AppSignalEED2Ev.exit, %_ZN17QArrayDataPointerI7QStringE5derefEv.exit.i.i, %_ZN9QtPrivate16QGenericArrayOpsI7QStringE10destroyAllEv.exit.i.i
  %25 = getelementptr inbounds i8, ptr %0, i64 120
  tail call void @_ZN6QTimerD1Ev(ptr noundef nonnull align 8 dereferenceable(16) %25) #26
  %26 = getelementptr inbounds i8, ptr %0, i64 104
  tail call void @_ZN6QTimerD1Ev(ptr noundef nonnull align 8 dereferenceable(16) %26) #26
  %27 = getelementptr inbounds i8, ptr %0, i64 88
  tail call void @_ZN6QTimerD1Ev(ptr noundef nonnull align 8 dereferenceable(16) %27) #26
  %28 = getelementptr inbounds i8, ptr %0, i64 72
  tail call void @_ZN5QFontD1Ev(ptr noundef nonnull align 8 dereferenceable(12) %28) #26
  %29 = getelementptr inbounds i8, ptr %0, i64 56
  tail call void @_ZN5QFontD1Ev(ptr noundef nonnull align 8 dereferenceable(12) %29) #26
  %30 = getelementptr inbounds i8, ptr %0, i64 32
  tail call void @_ZN11QTranslatorD1Ev(ptr noundef nonnull align 8 dereferenceable(16) %30) #26
  %31 = getelementptr inbounds i8, ptr %0, i64 16
  tail call void @_ZN11QTranslatorD1Ev(ptr noundef nonnull align 8 dereferenceable(16) %31) #26
  tail call void @_ZN12QApplicationD2Ev(ptr noundef nonnull align 8 dereferenceable(16) %0) #26
  ret void

32:                                               ; preds = %1
  %33 = landingpad { ptr, i32 }
          catch ptr null
  %34 = extractvalue { ptr, i32 } %33, 0
  tail call void @__clang_call_terminate(ptr %34) #31
  unreachable
}